#include <math.h>
#include <stdio.h>
#include <stdlib.h>
#include <string.h>


void main()
{
	int i,num,a[300],b[300],*p;
	scanf("%d",&num);
	for (i=0;i<=(num-1);i++)
	{
		scanf("%d",&a[i]);
	}
	printf("%d",a[0]);
	for (i=1;i<=(num-1);i++)
	{	
		for (p=a;p<&a[i];p++)
		{
			if (*p==a[i]) break;
		}
		if (p==&a[i]) printf(",%d",a[i]);
	}

}