; ModuleID = '53/85.c'
source_filename = "53/85.c"
target datalayout = "e-m:e-p270:32:32-p271:32:32-p272:64:64-i64:64-f80:128-n8:16:32:64-S128"
target triple = "x86_64-pc-linux-gnu"

@.str = private unnamed_addr constant [3 x i8] c"%d\00", align 1
@.str.1 = private unnamed_addr constant [4 x i8] c",%d\00", align 1

; Function Attrs: noinline nounwind uwtable
define dso_local void @main() #0 {
  %1 = alloca i32, align 4
  %2 = alloca i32, align 4
  %3 = alloca [300 x i32], align 16
  %4 = alloca [300 x i32], align 16
  %5 = alloca i32*, align 8
  %6 = call i32 (i8*, ...) @__isoc99_scanf(i8* getelementptr inbounds ([3 x i8], [3 x i8]* @.str, i64 0, i64 0), i32* %2)
  store i32 0, i32* %1, align 4
  br label %7

7:                                                ; preds = %17, %0
  %8 = load i32, i32* %1, align 4
  %9 = load i32, i32* %2, align 4
  %10 = sub nsw i32 %9, 1
  %11 = icmp sle i32 %8, %10
  br i1 %11, label %12, label %20

12:                                               ; preds = %7
  %13 = load i32, i32* %1, align 4
  %14 = sext i32 %13 to i64
  %15 = getelementptr inbounds [300 x i32], [300 x i32]* %3, i64 0, i64 %14
  %16 = call i32 (i8*, ...) @__isoc99_scanf(i8* getelementptr inbounds ([3 x i8], [3 x i8]* @.str, i64 0, i64 0), i32* %15)
  br label %17

17:                                               ; preds = %12
  %18 = load i32, i32* %1, align 4
  %19 = add nsw i32 %18, 1
  store i32 %19, i32* %1, align 4
  br label %7

20:                                               ; preds = %7
  %21 = getelementptr inbounds [300 x i32], [300 x i32]* %3, i64 0, i64 0
  %22 = load i32, i32* %21, align 16
  %23 = call i32 (i8*, ...) @printf(i8* getelementptr inbounds ([3 x i8], [3 x i8]* @.str, i64 0, i64 0), i32 %22)
  store i32 1, i32* %1, align 4
  br label %24

24:                                               ; preds = %63, %20
  %25 = load i32, i32* %1, align 4
  %26 = load i32, i32* %2, align 4
  %27 = sub nsw i32 %26, 1
  %28 = icmp sle i32 %25, %27
  br i1 %28, label %29, label %66

29:                                               ; preds = %24
  %30 = getelementptr inbounds [300 x i32], [300 x i32]* %3, i64 0, i64 0
  store i32* %30, i32** %5, align 8
  br label %31

31:                                               ; preds = %47, %29
  %32 = load i32*, i32** %5, align 8
  %33 = load i32, i32* %1, align 4
  %34 = sext i32 %33 to i64
  %35 = getelementptr inbounds [300 x i32], [300 x i32]* %3, i64 0, i64 %34
  %36 = icmp ult i32* %32, %35
  br i1 %36, label %37, label %50

37:                                               ; preds = %31
  %38 = load i32*, i32** %5, align 8
  %39 = load i32, i32* %38, align 4
  %40 = load i32, i32* %1, align 4
  %41 = sext i32 %40 to i64
  %42 = getelementptr inbounds [300 x i32], [300 x i32]* %3, i64 0, i64 %41
  %43 = load i32, i32* %42, align 4
  %44 = icmp eq i32 %39, %43
  br i1 %44, label %45, label %46

45:                                               ; preds = %37
  br label %50

46:                                               ; preds = %37
  br label %47

47:                                               ; preds = %46
  %48 = load i32*, i32** %5, align 8
  %49 = getelementptr inbounds i32, i32* %48, i32 1
  store i32* %49, i32** %5, align 8
  br label %31

50:                                               ; preds = %45, %31
  %51 = load i32*, i32** %5, align 8
  %52 = load i32, i32* %1, align 4
  %53 = sext i32 %52 to i64
  %54 = getelementptr inbounds [300 x i32], [300 x i32]* %3, i64 0, i64 %53
  %55 = icmp eq i32* %51, %54
  br i1 %55, label %56, label %62

56:                                               ; preds = %50
  %57 = load i32, i32* %1, align 4
  %58 = sext i32 %57 to i64
  %59 = getelementptr inbounds [300 x i32], [300 x i32]* %3, i64 0, i64 %58
  %60 = load i32, i32* %59, align 4
  %61 = call i32 (i8*, ...) @printf(i8* getelementptr inbounds ([4 x i8], [4 x i8]* @.str.1, i64 0, i64 0), i32 %60)
  br label %62

62:                                               ; preds = %56, %50
  br label %63

63:                                               ; preds = %62
  %64 = load i32, i32* %1, align 4
  %65 = add nsw i32 %64, 1
  store i32 %65, i32* %1, align 4
  br label %24

66:                                               ; preds = %24
  ret void
}

declare dso_local i32 @__isoc99_scanf(i8*, ...) #1

declare dso_local i32 @printf(i8*, ...) #1


!llvm.module.flags = !{!0}
!llvm.ident = !{!1}

!0 = !{i32 1, !"wchar_size", i32 4}
!1 = !{!"clang version 10.0.0-4ubuntu1 "}
